target datalayout = "e-m:e-p270:32:32-p271:32:32-p272:64:64-i64:64-i128:128-f80:128-n8:16:32:64-S128"
target triple = "x86_64-pc-linux-gnu"

%struct.dlist_head = type { %struct.dlist_node }
%struct.dlist_node = type { ptr, ptr }
%union.LWLockPadded = type { %struct.LWLock, [112 x i8] }
%struct.LWLock = type { i16, %struct.pg_atomic_uint32, %struct.proclist_head }
%struct.pg_atomic_uint32 = type { i32 }
%struct.proclist_head = type { i32, i32 }
%struct.dclist_head = type { %struct.dlist_head, i32 }

@OldestMemberMXactId = internal global ptr null, align 8
@MyProcNumber = external global i32, align 4
@MainLWLockArray = external global ptr, align 8
@OldestVisibleMXactId = internal global ptr null, align 8
@MXactContext = internal global ptr null, align 8
@MXactCache = internal global { %struct.dlist_head, i32, [4 x i8] } { %struct.dlist_head { %struct.dlist_node { ptr @MXactCache, ptr @MXactCache } }, i32 0, [4 x i8] zeroinitializer }, align 8

; Function Attrs: inlinehint nounwind uwtable
define internal void @dlist_init(ptr noundef %0) #4 {
  %2 = alloca ptr, align 8
  store ptr %0, ptr %2, align 8
  %3 = load ptr, ptr %2, align 8
  %4 = getelementptr inbounds nuw %struct.dlist_head, ptr %3, i32 0, i32 0
  %5 = load ptr, ptr %2, align 8
  %6 = getelementptr inbounds nuw %struct.dlist_head, ptr %5, i32 0, i32 0
  %7 = getelementptr inbounds nuw %struct.dlist_node, ptr %6, i32 0, i32 0
  store ptr %4, ptr %7, align 8
  %8 = load ptr, ptr %2, align 8
  %9 = getelementptr inbounds nuw %struct.dlist_head, ptr %8, i32 0, i32 0
  %10 = getelementptr inbounds nuw %struct.dlist_node, ptr %9, i32 0, i32 1
  store ptr %4, ptr %10, align 8
  ret void
}

; Function Attrs: inlinehint nounwind uwtable
define internal void @dclist_init(ptr noundef %0) #4 {
  %2 = alloca ptr, align 8
  store ptr %0, ptr %2, align 8
  %3 = load ptr, ptr %2, align 8
  %4 = getelementptr inbounds nuw %struct.dclist_head, ptr %3, i32 0, i32 0
  call void @dlist_init(ptr noundef %4)
  %5 = load ptr, ptr %2, align 8
  %6 = getelementptr inbounds nuw %struct.dclist_head, ptr %5, i32 0, i32 1
  store i32 0, ptr %6, align 8
  ret void
}

; Function Attrs: nounwind uwtable
define dso_local void @PostPrepare_MultiXact(i32 noundef %0) #0 {
  %2 = alloca i32, align 4
  %3 = alloca i32, align 4
  %4 = alloca i32, align 4
  store i32 %0, ptr %2, align 4
  call void @llvm.lifetime.start.p0(i64 4, ptr %3) #9
  %5 = load ptr, ptr @OldestMemberMXactId, align 8
  %6 = load i32, ptr @MyProcNumber, align 4
  %7 = sext i32 %6 to i64
  %8 = getelementptr inbounds i32, ptr %5, i64 %7
  %9 = load i32, ptr %8, align 4
  store i32 %9, ptr %3, align 4
  %10 = load i32, ptr %3, align 4
  %11 = icmp ne i32 %10, 0
  br i1 %11, label %12, label %29

12:                                               ; preds = %1
  call void @llvm.lifetime.start.p0(i64 4, ptr %4) #9
  %13 = load i32, ptr %2, align 4
  %14 = call i32 @TwoPhaseGetDummyProcNumber(i32 noundef %13, i1 noundef zeroext false)
  store i32 %14, ptr %4, align 4
  %15 = load ptr, ptr @MainLWLockArray, align 8
  %16 = getelementptr inbounds %union.LWLockPadded, ptr %15, i64 13
  %17 = call zeroext i1 @LWLockAcquire(ptr noundef %16, i32 noundef 0)
  %18 = load i32, ptr %3, align 4
  %19 = load ptr, ptr @OldestMemberMXactId, align 8
  %20 = load i32, ptr %4, align 4
  %21 = sext i32 %20 to i64
  %22 = getelementptr inbounds i32, ptr %19, i64 %21
  store i32 %18, ptr %22, align 4
  %23 = load ptr, ptr @OldestMemberMXactId, align 8
  %24 = load i32, ptr @MyProcNumber, align 4
  %25 = sext i32 %24 to i64
  %26 = getelementptr inbounds i32, ptr %23, i64 %25
  store i32 0, ptr %26, align 4
  %27 = load ptr, ptr @MainLWLockArray, align 8
  %28 = getelementptr inbounds %union.LWLockPadded, ptr %27, i64 13
  call void @LWLockRelease(ptr noundef %28)
  call void @llvm.lifetime.end.p0(i64 4, ptr %4) #9
  br label %29

29:                                               ; preds = %12, %1
  %30 = load ptr, ptr @OldestVisibleMXactId, align 8
  %31 = load i32, ptr @MyProcNumber, align 4
  %32 = sext i32 %31 to i64
  %33 = getelementptr inbounds i32, ptr %30, i64 %32
  store i32 0, ptr %33, align 4
  store ptr null, ptr @MXactContext, align 8
  call void @dclist_init(ptr noundef @MXactCache)
  call void @llvm.lifetime.end.p0(i64 4, ptr %3) #9
  ret void
}