; Function Attrs: nounwind uwtable
define dso_local void @PostPrepare_MultiXact(i32 noundef %0) local_unnamed_addr #0 {
  %2 = load ptr, ptr @OldestMemberMXactId, align 8
  %3 = load i32, ptr @MyProcNumber, align 4
  %4 = sext i32 %3 to i64
  %5 = getelementptr inbounds i32, ptr %2, i64 %4
  %6 = load i32, ptr %5, align 4
  %.not = icmp eq i32 %6, 0
  br i1 %.not, label %20, label %7

7:                                                ; preds = %1
  %8 = tail call i32 @TwoPhaseGetDummyProcNumber(i32 noundef %0, i1 noundef zeroext false) #13
  %9 = load ptr, ptr @MainLWLockArray, align 8
  %10 = getelementptr inbounds nuw i8, ptr %9, i64 1664
  %11 = tail call zeroext i1 @LWLockAcquire(ptr noundef nonnull %10, i32 noundef 0) #13
  %12 = load ptr, ptr @OldestMemberMXactId, align 8
  %13 = sext i32 %8 to i64
  %14 = getelementptr inbounds i32, ptr %12, i64 %13
  store i32 %6, ptr %14, align 4
  %15 = load i32, ptr @MyProcNumber, align 4
  %16 = sext i32 %15 to i64
  %17 = getelementptr inbounds i32, ptr %12, i64 %16
  store i32 0, ptr %17, align 4
  %18 = load ptr, ptr @MainLWLockArray, align 8
  %19 = getelementptr inbounds nuw i8, ptr %18, i64 1664
  tail call void @LWLockRelease(ptr noundef nonnull %19) #13
  %.pre = load i32, ptr @MyProcNumber, align 4
  %.pre4 = sext i32 %.pre to i64
  br label %20

20:                                               ; preds = %7, %1
  %.pre-phi = phi i64 [ %.pre4, %7 ], [ %4, %1 ]
  %21 = load ptr, ptr @OldestVisibleMXactId, align 8
  %22 = getelementptr inbounds i32, ptr %21, i64 %.pre-phi
  store i32 0, ptr %22, align 4
  store ptr null, ptr @MXactContext, align 8
  store ptr @MXactCache, ptr @MXactCache, align 8
  store ptr @MXactCache, ptr getelementptr inbounds nuw (i8, ptr @MXactCache, i64 8), align 8
  store i32 0, ptr getelementptr inbounds nuw (i8, ptr @MXactCache, i64 16), align 8
  ret void
}